; Function Attrs: nounwind uwtable
define internal fastcc void @dissect_MrpClientParams_block(ptr noundef %0, i32 noundef %1, ptr noundef %2, ptr noundef %3, ptr noundef %4, ptr noundef %5, i8 noundef zeroext %6, i8 noundef zeroext %7) unnamed_addr #0 {
  %9 = alloca i16, align 2
  %10 = alloca i16, align 2
  %11 = alloca i16, align 2
  %12 = icmp ne i8 %6, 1
  %13 = icmp ne i8 %7, 0
  %or.cond = or i1 %12, %13
  br i1 %or.cond, label %14, label %18

14:                                               ; preds = %8
  %15 = zext i8 %7 to i32
  %16 = zext i8 %6 to i32
  %17 = tail call ptr (ptr, ptr, ptr, ptr, ...) @expert_add_info_format(ptr noundef %2, ptr noundef %4, ptr noundef nonnull @ei_pn_io_block_version, ptr noundef nonnull @.str.1317, i32 noundef %16, i32 noundef %15) #11
  br label %25

18:                                               ; preds = %8
  %19 = load i32, ptr @hf_pn_io_mrp_lnkdownt, align 4
  %20 = call i32 @dissect_dcerpc_uint16(ptr noundef %0, i32 noundef %1, ptr noundef %2, ptr noundef %3, ptr noundef %5, i32 noundef %19, ptr noundef nonnull %9) #11
  %21 = load i32, ptr @hf_pn_io_mrp_lnkupt, align 4
  %22 = call i32 @dissect_dcerpc_uint16(ptr noundef %0, i32 noundef %20, ptr noundef %2, ptr noundef %3, ptr noundef %5, i32 noundef %21, ptr noundef nonnull %10) #11
  %23 = load i32, ptr @hf_pn_io_mrp_lnknrmax, align 4
  %24 = call i32 @dissect_dcerpc_uint16(ptr noundef %0, i32 noundef %22, ptr noundef %2, ptr noundef %3, ptr noundef %5, i32 noundef %23, ptr noundef nonnull %11) #11
  br label %25

25:                                               ; preds = %18, %14
  ret void
}